; ModuleID = '9/918.c'
source_filename = "9/918.c"
target datalayout = "e-m:e-p270:32:32-p271:32:32-p272:64:64-i64:64-f80:128-n8:16:32:64-S128"
target triple = "x86_64-pc-linux-gnu"

%struct.sick = type { [10 x i8], i32 }

@.str = private unnamed_addr constant [6 x i8] c"%s %d\00", align 1
@.str.1 = private unnamed_addr constant [3 x i8] c"%s\00", align 1
@.str.2 = private unnamed_addr constant [4 x i8] c"%s\0A\00", align 1

; Function Attrs: noinline nounwind uwtable
define dso_local i32 @main() #0 {
  %1 = alloca i32, align 4
  %2 = alloca i32, align 4
  %3 = alloca i32, align 4
  %4 = alloca i32, align 4
  %5 = alloca i32, align 4
  %6 = alloca [100 x %struct.sick], align 16
  %7 = alloca [100 x %struct.sick], align 16
  %8 = alloca %struct.sick, align 4
  %9 = alloca [3 x i8], align 1
  store i32 0, i32* %1, align 4
  store i32 0, i32* %4, align 4
  %10 = getelementptr inbounds [3 x i8], [3 x i8]* %9, i64 0, i64 0
  %11 = call i32 (i8*, ...) bitcast (i32 (...)* @gets to i32 (i8*, ...)*)(i8* %10)
  %12 = getelementptr inbounds [3 x i8], [3 x i8]* %9, i64 0, i64 0
  %13 = call i32 @atoi(i8* %12) #4
  store i32 %13, i32* %2, align 4
  store i32 0, i32* %3, align 4
  br label %14

14:                                               ; preds = %29, %0
  %15 = load i32, i32* %3, align 4
  %16 = load i32, i32* %2, align 4
  %17 = icmp slt i32 %15, %16
  br i1 %17, label %18, label %32

18:                                               ; preds = %14
  %19 = load i32, i32* %3, align 4
  %20 = sext i32 %19 to i64
  %21 = getelementptr inbounds [100 x %struct.sick], [100 x %struct.sick]* %6, i64 0, i64 %20
  %22 = getelementptr inbounds %struct.sick, %struct.sick* %21, i32 0, i32 0
  %23 = getelementptr inbounds [10 x i8], [10 x i8]* %22, i64 0, i64 0
  %24 = load i32, i32* %3, align 4
  %25 = sext i32 %24 to i64
  %26 = getelementptr inbounds [100 x %struct.sick], [100 x %struct.sick]* %6, i64 0, i64 %25
  %27 = getelementptr inbounds %struct.sick, %struct.sick* %26, i32 0, i32 1
  %28 = call i32 (i8*, ...) @__isoc99_scanf(i8* getelementptr inbounds ([6 x i8], [6 x i8]* @.str, i64 0, i64 0), i8* %23, i32* %27)
  br label %29

29:                                               ; preds = %18
  %30 = load i32, i32* %3, align 4
  %31 = add nsw i32 %30, 1
  store i32 %31, i32* %3, align 4
  br label %14

32:                                               ; preds = %14
  %33 = load i32, i32* %2, align 4
  %34 = icmp eq i32 %33, 1
  br i1 %34, label %35, label %40

35:                                               ; preds = %32
  %36 = getelementptr inbounds [100 x %struct.sick], [100 x %struct.sick]* %6, i64 0, i64 0
  %37 = getelementptr inbounds %struct.sick, %struct.sick* %36, i32 0, i32 0
  %38 = getelementptr inbounds [10 x i8], [10 x i8]* %37, i64 0, i64 0
  %39 = call i32 (i8*, ...) @printf(i8* getelementptr inbounds ([3 x i8], [3 x i8]* @.str.1, i64 0, i64 0), i8* %38)
  br label %162

40:                                               ; preds = %32
  store i32 0, i32* %3, align 4
  br label %41

41:                                               ; preds = %64, %40
  %42 = load i32, i32* %3, align 4
  %43 = load i32, i32* %2, align 4
  %44 = icmp slt i32 %42, %43
  br i1 %44, label %45, label %67

45:                                               ; preds = %41
  %46 = load i32, i32* %3, align 4
  %47 = sext i32 %46 to i64
  %48 = getelementptr inbounds [100 x %struct.sick], [100 x %struct.sick]* %6, i64 0, i64 %47
  %49 = getelementptr inbounds %struct.sick, %struct.sick* %48, i32 0, i32 1
  %50 = load i32, i32* %49, align 4
  %51 = icmp sge i32 %50, 60
  br i1 %51, label %52, label %63

52:                                               ; preds = %45
  %53 = load i32, i32* %4, align 4
  %54 = sext i32 %53 to i64
  %55 = getelementptr inbounds [100 x %struct.sick], [100 x %struct.sick]* %7, i64 0, i64 %54
  %56 = load i32, i32* %3, align 4
  %57 = sext i32 %56 to i64
  %58 = getelementptr inbounds [100 x %struct.sick], [100 x %struct.sick]* %6, i64 0, i64 %57
  %59 = bitcast %struct.sick* %55 to i8*
  %60 = bitcast %struct.sick* %58 to i8*
  call void @llvm.memcpy.p0i8.p0i8.i64(i8* align 16 %59, i8* align 16 %60, i64 16, i1 false)
  %61 = load i32, i32* %4, align 4
  %62 = add nsw i32 %61, 1
  store i32 %62, i32* %4, align 4
  br label %63

63:                                               ; preds = %52, %45
  br label %64

64:                                               ; preds = %63
  %65 = load i32, i32* %3, align 4
  %66 = add nsw i32 %65, 1
  store i32 %66, i32* %3, align 4
  br label %41

67:                                               ; preds = %41
  store i32 0, i32* %3, align 4
  br label %68

68:                                               ; preds = %120, %67
  %69 = load i32, i32* %3, align 4
  %70 = load i32, i32* %4, align 4
  %71 = sub nsw i32 %70, 1
  %72 = icmp slt i32 %69, %71
  br i1 %72, label %73, label %123

73:                                               ; preds = %68
  store i32 0, i32* %5, align 4
  br label %74

74:                                               ; preds = %116, %73
  %75 = load i32, i32* %5, align 4
  %76 = load i32, i32* %4, align 4
  %77 = sub nsw i32 %76, 1
  %78 = load i32, i32* %3, align 4
  %79 = sub nsw i32 %77, %78
  %80 = icmp slt i32 %75, %79
  br i1 %80, label %81, label %119

81:                                               ; preds = %74
  %82 = load i32, i32* %5, align 4
  %83 = sext i32 %82 to i64
  %84 = getelementptr inbounds [100 x %struct.sick], [100 x %struct.sick]* %7, i64 0, i64 %83
  %85 = getelementptr inbounds %struct.sick, %struct.sick* %84, i32 0, i32 1
  %86 = load i32, i32* %85, align 4
  %87 = load i32, i32* %5, align 4
  %88 = add nsw i32 %87, 1
  %89 = sext i32 %88 to i64
  %90 = getelementptr inbounds [100 x %struct.sick], [100 x %struct.sick]* %7, i64 0, i64 %89
  %91 = getelementptr inbounds %struct.sick, %struct.sick* %90, i32 0, i32 1
  %92 = load i32, i32* %91, align 4
  %93 = icmp slt i32 %86, %92
  br i1 %93, label %94, label %115

94:                                               ; preds = %81
  %95 = load i32, i32* %5, align 4
  %96 = sext i32 %95 to i64
  %97 = getelementptr inbounds [100 x %struct.sick], [100 x %struct.sick]* %7, i64 0, i64 %96
  %98 = bitcast %struct.sick* %8 to i8*
  %99 = bitcast %struct.sick* %97 to i8*
  call void @llvm.memcpy.p0i8.p0i8.i64(i8* align 4 %98, i8* align 16 %99, i64 16, i1 false)
  %100 = load i32, i32* %5, align 4
  %101 = sext i32 %100 to i64
  %102 = getelementptr inbounds [100 x %struct.sick], [100 x %struct.sick]* %7, i64 0, i64 %101
  %103 = load i32, i32* %5, align 4
  %104 = add nsw i32 %103, 1
  %105 = sext i32 %104 to i64
  %106 = getelementptr inbounds [100 x %struct.sick], [100 x %struct.sick]* %7, i64 0, i64 %105
  %107 = bitcast %struct.sick* %102 to i8*
  %108 = bitcast %struct.sick* %106 to i8*
  call void @llvm.memcpy.p0i8.p0i8.i64(i8* align 16 %107, i8* align 16 %108, i64 16, i1 false)
  %109 = load i32, i32* %5, align 4
  %110 = add nsw i32 %109, 1
  %111 = sext i32 %110 to i64
  %112 = getelementptr inbounds [100 x %struct.sick], [100 x %struct.sick]* %7, i64 0, i64 %111
  %113 = bitcast %struct.sick* %112 to i8*
  %114 = bitcast %struct.sick* %8 to i8*
  call void @llvm.memcpy.p0i8.p0i8.i64(i8* align 16 %113, i8* align 4 %114, i64 16, i1 false)
  br label %115

115:                                              ; preds = %94, %81
  br label %116

116:                                              ; preds = %115
  %117 = load i32, i32* %5, align 4
  %118 = add nsw i32 %117, 1
  store i32 %118, i32* %5, align 4
  br label %74

119:                                              ; preds = %74
  br label %120

120:                                              ; preds = %119
  %121 = load i32, i32* %3, align 4
  %122 = add nsw i32 %121, 1
  store i32 %122, i32* %3, align 4
  br label %68

123:                                              ; preds = %68
  store i32 0, i32* %3, align 4
  br label %124

124:                                              ; preds = %135, %123
  %125 = load i32, i32* %3, align 4
  %126 = load i32, i32* %4, align 4
  %127 = icmp slt i32 %125, %126
  br i1 %127, label %128, label %138

128:                                              ; preds = %124
  %129 = load i32, i32* %3, align 4
  %130 = sext i32 %129 to i64
  %131 = getelementptr inbounds [100 x %struct.sick], [100 x %struct.sick]* %7, i64 0, i64 %130
  %132 = getelementptr inbounds %struct.sick, %struct.sick* %131, i32 0, i32 0
  %133 = getelementptr inbounds [10 x i8], [10 x i8]* %132, i64 0, i64 0
  %134 = call i32 (i8*, ...) @printf(i8* getelementptr inbounds ([4 x i8], [4 x i8]* @.str.2, i64 0, i64 0), i8* %133)
  br label %135

135:                                              ; preds = %128
  %136 = load i32, i32* %3, align 4
  %137 = add nsw i32 %136, 1
  store i32 %137, i32* %3, align 4
  br label %124

138:                                              ; preds = %124
  store i32 0, i32* %3, align 4
  br label %139

139:                                              ; preds = %158, %138
  %140 = load i32, i32* %3, align 4
  %141 = load i32, i32* %2, align 4
  %142 = icmp slt i32 %140, %141
  br i1 %142, label %143, label %161

143:                                              ; preds = %139
  %144 = load i32, i32* %3, align 4
  %145 = sext i32 %144 to i64
  %146 = getelementptr inbounds [100 x %struct.sick], [100 x %struct.sick]* %6, i64 0, i64 %145
  %147 = getelementptr inbounds %struct.sick, %struct.sick* %146, i32 0, i32 1
  %148 = load i32, i32* %147, align 4
  %149 = icmp slt i32 %148, 60
  br i1 %149, label %150, label %157

150:                                              ; preds = %143
  %151 = load i32, i32* %3, align 4
  %152 = sext i32 %151 to i64
  %153 = getelementptr inbounds [100 x %struct.sick], [100 x %struct.sick]* %6, i64 0, i64 %152
  %154 = getelementptr inbounds %struct.sick, %struct.sick* %153, i32 0, i32 0
  %155 = getelementptr inbounds [10 x i8], [10 x i8]* %154, i64 0, i64 0
  %156 = call i32 (i8*, ...) @printf(i8* getelementptr inbounds ([4 x i8], [4 x i8]* @.str.2, i64 0, i64 0), i8* %155)
  br label %157

157:                                              ; preds = %150, %143
  br label %158

158:                                              ; preds = %157
  %159 = load i32, i32* %3, align 4
  %160 = add nsw i32 %159, 1
  store i32 %160, i32* %3, align 4
  br label %139

161:                                              ; preds = %139
  br label %162

162:                                              ; preds = %161, %35
  ret i32 0
}

declare dso_local i32 @gets(...) #1

; Function Attrs: nounwind readonly
declare dso_local i32 @atoi(i8*) #2

declare dso_local i32 @__isoc99_scanf(i8*, ...) #1

declare dso_local i32 @printf(i8*, ...) #1

; Function Attrs: argmemonly nounwind willreturn
declare void @llvm.memcpy.p0i8.p0i8.i64(i8* noalias nocapture writeonly, i8* noalias nocapture readonly, i64, i1 immarg) #3


!llvm.module.flags = !{!0}
!llvm.ident = !{!1}

!0 = !{i32 1, !"wchar_size", i32 4}
!1 = !{!"clang version 10.0.0-4ubuntu1 "}
